; ModuleID = '39/262.c'
source_filename = "39/262.c"
target datalayout = "e-m:e-p270:32:32-p271:32:32-p272:64:64-i64:64-f80:128-n8:16:32:64-S128"
target triple = "x86_64-pc-linux-gnu"

%struct.student = type { [35 x i8], i32, i32, i8, i8, i32, i32, %struct.student* }

@.str = private unnamed_addr constant [3 x i8] c"%d\00", align 1
@.str.1 = private unnamed_addr constant [18 x i8] c"%s %d %d %c %c %d\00", align 1
@.str.2 = private unnamed_addr constant [7 x i8] c"%s\0A%d\0A\00", align 1

; Function Attrs: noinline nounwind uwtable
define dso_local %struct.student* @creat() #0 {
  %1 = alloca %struct.student*, align 8
  %2 = alloca %struct.student*, align 8
  %3 = alloca %struct.student*, align 8
  %4 = alloca i32, align 4
  %5 = alloca i32, align 4
  store i32 0, i32* %5, align 4
  %6 = call i32 (i8*, ...) @__isoc99_scanf(i8* getelementptr inbounds ([3 x i8], [3 x i8]* @.str, i64 0, i64 0), i32* %4)
  %7 = call noalias i8* @malloc(i64 64) #3
  %8 = bitcast i8* %7 to %struct.student*
  store %struct.student* %8, %struct.student** %3, align 8
  %9 = load %struct.student*, %struct.student** %3, align 8
  %10 = getelementptr inbounds %struct.student, %struct.student* %9, i32 0, i32 0
  %11 = load %struct.student*, %struct.student** %3, align 8
  %12 = getelementptr inbounds %struct.student, %struct.student* %11, i32 0, i32 1
  %13 = load %struct.student*, %struct.student** %3, align 8
  %14 = getelementptr inbounds %struct.student, %struct.student* %13, i32 0, i32 2
  %15 = load %struct.student*, %struct.student** %3, align 8
  %16 = getelementptr inbounds %struct.student, %struct.student* %15, i32 0, i32 3
  %17 = load %struct.student*, %struct.student** %3, align 8
  %18 = getelementptr inbounds %struct.student, %struct.student* %17, i32 0, i32 4
  %19 = load %struct.student*, %struct.student** %3, align 8
  %20 = getelementptr inbounds %struct.student, %struct.student* %19, i32 0, i32 5
  %21 = call i32 (i8*, ...) @__isoc99_scanf(i8* getelementptr inbounds ([18 x i8], [18 x i8]* @.str.1, i64 0, i64 0), [35 x i8]* %10, i32* %12, i32* %14, i8* %16, i8* %18, i32* %20)
  %22 = load %struct.student*, %struct.student** %3, align 8
  store %struct.student* %22, %struct.student** %2, align 8
  %23 = load %struct.student*, %struct.student** %3, align 8
  store %struct.student* %23, %struct.student** %1, align 8
  store i32 0, i32* %5, align 4
  br label %24

24:                                               ; preds = %138, %0
  %25 = load i32, i32* %5, align 4
  %26 = load i32, i32* %4, align 4
  %27 = icmp slt i32 %25, %26
  br i1 %27, label %28, label %141

28:                                               ; preds = %24
  %29 = load %struct.student*, %struct.student** %1, align 8
  store %struct.student* %29, %struct.student** %2, align 8
  %30 = load %struct.student*, %struct.student** %2, align 8
  %31 = getelementptr inbounds %struct.student, %struct.student* %30, i32 0, i32 6
  store i32 0, i32* %31, align 4
  %32 = load %struct.student*, %struct.student** %2, align 8
  %33 = getelementptr inbounds %struct.student, %struct.student* %32, i32 0, i32 1
  %34 = load i32, i32* %33, align 4
  %35 = icmp sgt i32 %34, 80
  br i1 %35, label %36, label %48

36:                                               ; preds = %28
  %37 = load %struct.student*, %struct.student** %2, align 8
  %38 = getelementptr inbounds %struct.student, %struct.student* %37, i32 0, i32 5
  %39 = load i32, i32* %38, align 8
  %40 = icmp sgt i32 %39, 0
  br i1 %40, label %41, label %48

41:                                               ; preds = %36
  %42 = load %struct.student*, %struct.student** %2, align 8
  %43 = getelementptr inbounds %struct.student, %struct.student* %42, i32 0, i32 6
  %44 = load i32, i32* %43, align 4
  %45 = add nsw i32 %44, 8000
  %46 = load %struct.student*, %struct.student** %2, align 8
  %47 = getelementptr inbounds %struct.student, %struct.student* %46, i32 0, i32 6
  store i32 %45, i32* %47, align 4
  br label %48

48:                                               ; preds = %41, %36, %28
  %49 = load %struct.student*, %struct.student** %2, align 8
  %50 = getelementptr inbounds %struct.student, %struct.student* %49, i32 0, i32 1
  %51 = load i32, i32* %50, align 4
  %52 = icmp sgt i32 %51, 85
  br i1 %52, label %53, label %65

53:                                               ; preds = %48
  %54 = load %struct.student*, %struct.student** %2, align 8
  %55 = getelementptr inbounds %struct.student, %struct.student* %54, i32 0, i32 2
  %56 = load i32, i32* %55, align 8
  %57 = icmp sgt i32 %56, 80
  br i1 %57, label %58, label %65

58:                                               ; preds = %53
  %59 = load %struct.student*, %struct.student** %2, align 8
  %60 = getelementptr inbounds %struct.student, %struct.student* %59, i32 0, i32 6
  %61 = load i32, i32* %60, align 4
  %62 = add nsw i32 %61, 4000
  %63 = load %struct.student*, %struct.student** %2, align 8
  %64 = getelementptr inbounds %struct.student, %struct.student* %63, i32 0, i32 6
  store i32 %62, i32* %64, align 4
  br label %65

65:                                               ; preds = %58, %53, %48
  %66 = load %struct.student*, %struct.student** %2, align 8
  %67 = getelementptr inbounds %struct.student, %struct.student* %66, i32 0, i32 1
  %68 = load i32, i32* %67, align 4
  %69 = icmp sgt i32 %68, 90
  br i1 %69, label %70, label %77

70:                                               ; preds = %65
  %71 = load %struct.student*, %struct.student** %2, align 8
  %72 = getelementptr inbounds %struct.student, %struct.student* %71, i32 0, i32 6
  %73 = load i32, i32* %72, align 4
  %74 = add nsw i32 %73, 2000
  %75 = load %struct.student*, %struct.student** %2, align 8
  %76 = getelementptr inbounds %struct.student, %struct.student* %75, i32 0, i32 6
  store i32 %74, i32* %76, align 4
  br label %77

77:                                               ; preds = %70, %65
  %78 = load %struct.student*, %struct.student** %2, align 8
  %79 = getelementptr inbounds %struct.student, %struct.student* %78, i32 0, i32 1
  %80 = load i32, i32* %79, align 4
  %81 = icmp sgt i32 %80, 85
  br i1 %81, label %82, label %95

82:                                               ; preds = %77
  %83 = load %struct.student*, %struct.student** %2, align 8
  %84 = getelementptr inbounds %struct.student, %struct.student* %83, i32 0, i32 4
  %85 = load i8, i8* %84, align 1
  %86 = sext i8 %85 to i32
  %87 = icmp eq i32 %86, 89
  br i1 %87, label %88, label %95

88:                                               ; preds = %82
  %89 = load %struct.student*, %struct.student** %2, align 8
  %90 = getelementptr inbounds %struct.student, %struct.student* %89, i32 0, i32 6
  %91 = load i32, i32* %90, align 4
  %92 = add nsw i32 %91, 1000
  %93 = load %struct.student*, %struct.student** %2, align 8
  %94 = getelementptr inbounds %struct.student, %struct.student* %93, i32 0, i32 6
  store i32 %92, i32* %94, align 4
  br label %95

95:                                               ; preds = %88, %82, %77
  %96 = load %struct.student*, %struct.student** %2, align 8
  %97 = getelementptr inbounds %struct.student, %struct.student* %96, i32 0, i32 2
  %98 = load i32, i32* %97, align 8
  %99 = icmp sgt i32 %98, 80
  br i1 %99, label %100, label %113

100:                                              ; preds = %95
  %101 = load %struct.student*, %struct.student** %2, align 8
  %102 = getelementptr inbounds %struct.student, %struct.student* %101, i32 0, i32 3
  %103 = load i8, i8* %102, align 4
  %104 = sext i8 %103 to i32
  %105 = icmp eq i32 %104, 89
  br i1 %105, label %106, label %113

106:                                              ; preds = %100
  %107 = load %struct.student*, %struct.student** %2, align 8
  %108 = getelementptr inbounds %struct.student, %struct.student* %107, i32 0, i32 6
  %109 = load i32, i32* %108, align 4
  %110 = add nsw i32 %109, 850
  %111 = load %struct.student*, %struct.student** %2, align 8
  %112 = getelementptr inbounds %struct.student, %struct.student* %111, i32 0, i32 6
  store i32 %110, i32* %112, align 4
  br label %113

113:                                              ; preds = %106, %100, %95
  %114 = load i32, i32* %5, align 4
  %115 = load i32, i32* %4, align 4
  %116 = sub nsw i32 %115, 1
  %117 = icmp slt i32 %114, %116
  br i1 %117, label %118, label %137

118:                                              ; preds = %113
  %119 = call noalias i8* @malloc(i64 64) #3
  %120 = bitcast i8* %119 to %struct.student*
  store %struct.student* %120, %struct.student** %1, align 8
  %121 = load %struct.student*, %struct.student** %1, align 8
  %122 = getelementptr inbounds %struct.student, %struct.student* %121, i32 0, i32 0
  %123 = load %struct.student*, %struct.student** %1, align 8
  %124 = getelementptr inbounds %struct.student, %struct.student* %123, i32 0, i32 1
  %125 = load %struct.student*, %struct.student** %1, align 8
  %126 = getelementptr inbounds %struct.student, %struct.student* %125, i32 0, i32 2
  %127 = load %struct.student*, %struct.student** %1, align 8
  %128 = getelementptr inbounds %struct.student, %struct.student* %127, i32 0, i32 3
  %129 = load %struct.student*, %struct.student** %1, align 8
  %130 = getelementptr inbounds %struct.student, %struct.student* %129, i32 0, i32 4
  %131 = load %struct.student*, %struct.student** %1, align 8
  %132 = getelementptr inbounds %struct.student, %struct.student* %131, i32 0, i32 5
  %133 = call i32 (i8*, ...) @__isoc99_scanf(i8* getelementptr inbounds ([18 x i8], [18 x i8]* @.str.1, i64 0, i64 0), [35 x i8]* %122, i32* %124, i32* %126, i8* %128, i8* %130, i32* %132)
  %134 = load %struct.student*, %struct.student** %1, align 8
  %135 = load %struct.student*, %struct.student** %2, align 8
  %136 = getelementptr inbounds %struct.student, %struct.student* %135, i32 0, i32 7
  store %struct.student* %134, %struct.student** %136, align 8
  br label %137

137:                                              ; preds = %118, %113
  br label %138

138:                                              ; preds = %137
  %139 = load i32, i32* %5, align 4
  %140 = add nsw i32 %139, 1
  store i32 %140, i32* %5, align 4
  br label %24

141:                                              ; preds = %24
  %142 = load %struct.student*, %struct.student** %2, align 8
  %143 = getelementptr inbounds %struct.student, %struct.student* %142, i32 0, i32 7
  store %struct.student* null, %struct.student** %143, align 8
  %144 = load %struct.student*, %struct.student** %3, align 8
  ret %struct.student* %144
}

declare dso_local i32 @__isoc99_scanf(i8*, ...) #1

; Function Attrs: nounwind
declare dso_local noalias i8* @malloc(i64) #2

; Function Attrs: noinline nounwind uwtable
define dso_local void @main() #0 {
  %1 = alloca %struct.student*, align 8
  %2 = alloca %struct.student*, align 8
  %3 = alloca %struct.student*, align 8
  %4 = alloca i32, align 4
  %5 = alloca i32, align 4
  store i32 0, i32* %4, align 4
  store i32 0, i32* %5, align 4
  %6 = call %struct.student* @creat()
  store %struct.student* %6, %struct.student** %1, align 8
  %7 = load %struct.student*, %struct.student** %1, align 8
  store %struct.student* %7, %struct.student** %2, align 8
  br label %8

8:                                                ; preds = %22, %0
  %9 = load %struct.student*, %struct.student** %2, align 8
  %10 = icmp ne %struct.student* %9, null
  br i1 %10, label %11, label %31

11:                                               ; preds = %8
  %12 = load %struct.student*, %struct.student** %2, align 8
  %13 = getelementptr inbounds %struct.student, %struct.student* %12, i32 0, i32 6
  %14 = load i32, i32* %13, align 4
  %15 = load i32, i32* %5, align 4
  %16 = icmp sgt i32 %14, %15
  br i1 %16, label %17, label %22

17:                                               ; preds = %11
  %18 = load %struct.student*, %struct.student** %2, align 8
  %19 = getelementptr inbounds %struct.student, %struct.student* %18, i32 0, i32 6
  %20 = load i32, i32* %19, align 4
  store i32 %20, i32* %5, align 4
  %21 = load %struct.student*, %struct.student** %2, align 8
  store %struct.student* %21, %struct.student** %3, align 8
  br label %22

22:                                               ; preds = %17, %11
  %23 = load i32, i32* %4, align 4
  %24 = load %struct.student*, %struct.student** %2, align 8
  %25 = getelementptr inbounds %struct.student, %struct.student* %24, i32 0, i32 6
  %26 = load i32, i32* %25, align 4
  %27 = add nsw i32 %23, %26
  store i32 %27, i32* %4, align 4
  %28 = load %struct.student*, %struct.student** %2, align 8
  %29 = getelementptr inbounds %struct.student, %struct.student* %28, i32 0, i32 7
  %30 = load %struct.student*, %struct.student** %29, align 8
  store %struct.student* %30, %struct.student** %2, align 8
  br label %8

31:                                               ; preds = %8
  %32 = load %struct.student*, %struct.student** %3, align 8
  %33 = getelementptr inbounds %struct.student, %struct.student* %32, i32 0, i32 0
  %34 = getelementptr inbounds [35 x i8], [35 x i8]* %33, i64 0, i64 0
  %35 = load %struct.student*, %struct.student** %3, align 8
  %36 = getelementptr inbounds %struct.student, %struct.student* %35, i32 0, i32 6
  %37 = load i32, i32* %36, align 4
  %38 = call i32 (i8*, ...) @printf(i8* getelementptr inbounds ([7 x i8], [7 x i8]* @.str.2, i64 0, i64 0), i8* %34, i32 %37)
  %39 = load i32, i32* %4, align 4
  %40 = call i32 (i8*, ...) @printf(i8* getelementptr inbounds ([3 x i8], [3 x i8]* @.str, i64 0, i64 0), i32 %39)
  ret void
}

declare dso_local i32 @printf(i8*, ...) #1


!llvm.module.flags = !{!0}
!llvm.ident = !{!1}

!0 = !{i32 1, !"wchar_size", i32 4}
!1 = !{!"clang version 10.0.0-4ubuntu1 "}
